target datalayout = "e-m:e-p270:32:32-p271:32:32-p272:64:64-i64:64-i128:128-f80:128-n8:16:32:64-S128"
target triple = "x86_64-pc-linux-gnu"

%struct._packet_info = type { ptr, ptr, i32, i32, %struct.nstime_t, %struct.nstime_t, %struct.nstime_t, i8, ptr, ptr, ptr, ptr, %struct._address, %struct._address, %struct._address, %struct._address, %struct._address, %struct._address, i32, ptr, i8, [3 x i8], %struct.anon, i32, i32, i32, i32, ptr, i8, ptr, ptr, i16, i16, i32, i32, i16, i32, i32, ptr, ptr, ptr, i8, i8, i16, i16, i16, i32, i16, i16, ptr, ptr, ptr, ptr, ptr, i32, i32 }
%struct.nstime_t = type { i64, i32 }
%struct._address = type { i32, i32, ptr, ptr }
%struct.anon = type { i8, [3 x i8] }

@hf_vuze_dht_network_coordinates_count = internal global i32 0, align 4
@hf_vuze_dht_network_coordinates = internal global i32 0, align 4
@hf_vuze_dht_network_coordinate = internal global i32 0, align 4
@hf_vuze_dht_network_coordinate_type = internal global i32 0, align 4
@hf_vuze_dht_network_coordinate_size = internal global i32 0, align 4
@hf_vuze_dht_network_coordinate_data = internal global i32 0, align 4
@hf_vuze_dht_network_coordinate_x = internal global i32 0, align 4
@hf_vuze_dht_network_coordinate_y = internal global i32 0, align 4
@hf_vuze_dht_network_coordinate_height = internal global i32 0, align 4
@hf_vuze_dht_network_coordinate_error = internal global i32 0, align 4
@ett_vuze_dht_network_coordinates = internal global i32 0, align 4
@ett_vuze_dht_network_coordinate = internal global i32 0, align 4
@.str.182 = private unnamed_addr constant [23 x i8] c"%d network coordinates\00", align 1
@.str.183 = private unnamed_addr constant [21 x i8] c": type %d, length %d\00", align 1
@.str.184 = private unnamed_addr constant [28 x i8] c" ( %.2f, %.2f, %.2f, %.2f )\00", align 1
@.str.185 = private unnamed_addr constant [8 x i8] c" ( %s )\00", align 1

; Function Attrs: null_pointer_is_valid sspstrong uwtable
define internal i32 @dissect_vuze_dht_network_coordinate(ptr noundef %0, ptr noundef %1, ptr noundef %2, i32 noundef %3) #0 {
  %5 = alloca ptr, align 8
  %6 = alloca ptr, align 8
  %7 = alloca ptr, align 8
  %8 = alloca i32, align 4
  %9 = alloca ptr, align 8
  %10 = alloca ptr, align 8
  %11 = alloca i32, align 4
  %12 = alloca i32, align 4
  store ptr %0, ptr %5, align 8
  store ptr %1, ptr %6, align 8
  store ptr %2, ptr %7, align 8
  store i32 %3, ptr %8, align 4
  call void @llvm.lifetime.start.p0(i64 8, ptr %9) #5
  call void @llvm.lifetime.start.p0(i64 8, ptr %10) #5
  call void @llvm.lifetime.start.p0(i64 4, ptr %11) #5
  call void @llvm.lifetime.start.p0(i64 4, ptr %12) #5
  %13 = load ptr, ptr %5, align 8
  %14 = load i32, ptr %8, align 4
  %15 = call zeroext i8 @tvb_get_uint8(ptr noundef %13, i32 noundef %14)
  %16 = zext i8 %15 to i32
  store i32 %16, ptr %12, align 4
  %17 = load ptr, ptr %5, align 8
  %18 = load i32, ptr %8, align 4
  %19 = add i32 %18, 1
  %20 = call zeroext i8 @tvb_get_uint8(ptr noundef %17, i32 noundef %19)
  %21 = zext i8 %20 to i32
  store i32 %21, ptr %11, align 4
  %22 = load ptr, ptr %7, align 8
  %23 = load i32, ptr @hf_vuze_dht_network_coordinate, align 4
  %24 = load ptr, ptr %5, align 8
  %25 = load i32, ptr %8, align 4
  %26 = load i32, ptr %11, align 4
  %27 = add i32 %26, 2
  %28 = call ptr @proto_tree_add_item(ptr noundef %22, i32 noundef %23, ptr noundef %24, i32 noundef %25, i32 noundef %27, i32 noundef 0)
  store ptr %28, ptr %9, align 8
  %29 = load ptr, ptr %9, align 8
  %30 = load i32, ptr @ett_vuze_dht_network_coordinate, align 4
  %31 = call ptr @proto_item_add_subtree(ptr noundef %29, i32 noundef %30)
  store ptr %31, ptr %10, align 8
  %32 = load ptr, ptr %9, align 8
  %33 = load ptr, ptr %5, align 8
  %34 = load i32, ptr %8, align 4
  %35 = call zeroext i8 @tvb_get_uint8(ptr noundef %33, i32 noundef %34)
  %36 = zext i8 %35 to i32
  %37 = load ptr, ptr %5, align 8
  %38 = load i32, ptr %8, align 4
  %39 = add i32 %38, 1
  %40 = call zeroext i8 @tvb_get_uint8(ptr noundef %37, i32 noundef %39)
  %41 = zext i8 %40 to i32
  call void (ptr, ptr, ...) @proto_item_append_text(ptr noundef %32, ptr noundef @.str.183, i32 noundef %36, i32 noundef %41)
  %42 = load i32, ptr %12, align 4
  %43 = icmp eq i32 %42, 1
  br i1 %43, label %44, label %76

44:                                               ; preds = %4
  %45 = load ptr, ptr %9, align 8
  %46 = load ptr, ptr %5, align 8
  %47 = load i32, ptr %8, align 4
  %48 = add i32 %47, 1
  %49 = add i32 %48, 1
  %50 = call float @tvb_get_ntohieee_float(ptr noundef %46, i32 noundef %49)
  %51 = fpext float %50 to double
  %52 = load ptr, ptr %5, align 8
  %53 = load i32, ptr %8, align 4
  %54 = add i32 %53, 1
  %55 = add i32 %54, 1
  %56 = add i32 %55, 4
  %57 = call float @tvb_get_ntohieee_float(ptr noundef %52, i32 noundef %56)
  %58 = fpext float %57 to double
  %59 = load ptr, ptr %5, align 8
  %60 = load i32, ptr %8, align 4
  %61 = add i32 %60, 1
  %62 = add i32 %61, 1
  %63 = add i32 %62, 4
  %64 = add i32 %63, 4
  %65 = call float @tvb_get_ntohieee_float(ptr noundef %59, i32 noundef %64)
  %66 = fpext float %65 to double
  %67 = load ptr, ptr %5, align 8
  %68 = load i32, ptr %8, align 4
  %69 = add i32 %68, 1
  %70 = add i32 %69, 1
  %71 = add i32 %70, 4
  %72 = add i32 %71, 4
  %73 = add i32 %72, 4
  %74 = call float @tvb_get_ntohieee_float(ptr noundef %67, i32 noundef %73)
  %75 = fpext float %74 to double
  call void (ptr, ptr, ...) @proto_item_append_text(ptr noundef %45, ptr noundef @.str.184, double noundef %51, double noundef %58, double noundef %66, double noundef %75)
  br label %87

76:                                               ; preds = %4
  %77 = load ptr, ptr %9, align 8
  %78 = load ptr, ptr %6, align 8
  %79 = getelementptr inbounds nuw %struct._packet_info, ptr %78, i32 0, i32 51
  %80 = load ptr, ptr %79, align 8
  %81 = load ptr, ptr %5, align 8
  %82 = load i32, ptr %8, align 4
  %83 = add i32 %82, 1
  %84 = add i32 %83, 1
  %85 = load i32, ptr %11, align 4
  %86 = call ptr @tvb_bytes_to_str(ptr noundef %80, ptr noundef %81, i32 noundef %84, i32 noundef %85)
  call void (ptr, ptr, ...) @proto_item_append_text(ptr noundef %77, ptr noundef @.str.185, ptr noundef %86)
  br label %87

87:                                               ; preds = %76, %44
  %88 = load ptr, ptr %10, align 8
  %89 = load i32, ptr @hf_vuze_dht_network_coordinate_type, align 4
  %90 = load ptr, ptr %5, align 8
  %91 = load i32, ptr %8, align 4
  %92 = call ptr @proto_tree_add_item(ptr noundef %88, i32 noundef %89, ptr noundef %90, i32 noundef %91, i32 noundef 1, i32 noundef 0)
  %93 = load i32, ptr %8, align 4
  %94 = add i32 %93, 1
  store i32 %94, ptr %8, align 4
  %95 = load ptr, ptr %10, align 8
  %96 = load i32, ptr @hf_vuze_dht_network_coordinate_size, align 4
  %97 = load ptr, ptr %5, align 8
  %98 = load i32, ptr %8, align 4
  %99 = call ptr @proto_tree_add_item(ptr noundef %95, i32 noundef %96, ptr noundef %97, i32 noundef %98, i32 noundef 1, i32 noundef 0)
  %100 = load i32, ptr %8, align 4
  %101 = add i32 %100, 1
  store i32 %101, ptr %8, align 4
  %102 = load i32, ptr %12, align 4
  %103 = icmp eq i32 %102, 1
  br i1 %103, label %104, label %133

104:                                              ; preds = %87
  %105 = load ptr, ptr %10, align 8
  %106 = load i32, ptr @hf_vuze_dht_network_coordinate_x, align 4
  %107 = load ptr, ptr %5, align 8
  %108 = load i32, ptr %8, align 4
  %109 = call ptr @proto_tree_add_item(ptr noundef %105, i32 noundef %106, ptr noundef %107, i32 noundef %108, i32 noundef 4, i32 noundef 0)
  %110 = load i32, ptr %8, align 4
  %111 = add i32 %110, 4
  store i32 %111, ptr %8, align 4
  %112 = load ptr, ptr %10, align 8
  %113 = load i32, ptr @hf_vuze_dht_network_coordinate_y, align 4
  %114 = load ptr, ptr %5, align 8
  %115 = load i32, ptr %8, align 4
  %116 = call ptr @proto_tree_add_item(ptr noundef %112, i32 noundef %113, ptr noundef %114, i32 noundef %115, i32 noundef 4, i32 noundef 0)
  %117 = load i32, ptr %8, align 4
  %118 = add i32 %117, 4
  store i32 %118, ptr %8, align 4
  %119 = load ptr, ptr %10, align 8
  %120 = load i32, ptr @hf_vuze_dht_network_coordinate_height, align 4
  %121 = load ptr, ptr %5, align 8
  %122 = load i32, ptr %8, align 4
  %123 = call ptr @proto_tree_add_item(ptr noundef %119, i32 noundef %120, ptr noundef %121, i32 noundef %122, i32 noundef 4, i32 noundef 0)
  %124 = load i32, ptr %8, align 4
  %125 = add i32 %124, 4
  store i32 %125, ptr %8, align 4
  %126 = load ptr, ptr %10, align 8
  %127 = load i32, ptr @hf_vuze_dht_network_coordinate_error, align 4
  %128 = load ptr, ptr %5, align 8
  %129 = load i32, ptr %8, align 4
  %130 = call ptr @proto_tree_add_item(ptr noundef %126, i32 noundef %127, ptr noundef %128, i32 noundef %129, i32 noundef 4, i32 noundef 0)
  %131 = load i32, ptr %8, align 4
  %132 = add i32 %131, 4
  store i32 %132, ptr %8, align 4
  br label %143

133:                                              ; preds = %87
  %134 = load ptr, ptr %10, align 8
  %135 = load i32, ptr @hf_vuze_dht_network_coordinate_data, align 4
  %136 = load ptr, ptr %5, align 8
  %137 = load i32, ptr %8, align 4
  %138 = load i32, ptr %11, align 4
  %139 = call ptr @proto_tree_add_item(ptr noundef %134, i32 noundef %135, ptr noundef %136, i32 noundef %137, i32 noundef %138, i32 noundef 0)
  %140 = load i32, ptr %11, align 4
  %141 = load i32, ptr %8, align 4
  %142 = add i32 %141, %140
  store i32 %142, ptr %8, align 4
  br label %143

143:                                              ; preds = %133, %104
  %144 = load i32, ptr %8, align 4
  call void @llvm.lifetime.end.p0(i64 4, ptr %12) #5
  call void @llvm.lifetime.end.p0(i64 4, ptr %11) #5
  call void @llvm.lifetime.end.p0(i64 8, ptr %10) #5
  call void @llvm.lifetime.end.p0(i64 8, ptr %9) #5
  ret i32 %144
}

; Function Attrs: null_pointer_is_valid sspstrong uwtable
define internal i32 @dissect_vuze_dht_network_coordinates(ptr noundef %0, ptr noundef %1, ptr noundef %2, i32 noundef %3, i32 noundef %4) #0 {
  %6 = alloca ptr, align 8
  %7 = alloca ptr, align 8
  %8 = alloca ptr, align 8
  %9 = alloca i32, align 4
  %10 = alloca i32, align 4
  %11 = alloca ptr, align 8
  %12 = alloca ptr, align 8
  %13 = alloca i32, align 4
  %14 = alloca i32, align 4
  store ptr %0, ptr %6, align 8
  store ptr %1, ptr %7, align 8
  store ptr %2, ptr %8, align 8
  store i32 %3, ptr %9, align 4
  store i32 %4, ptr %10, align 4
  call void @llvm.lifetime.start.p0(i64 8, ptr %11) #5
  call void @llvm.lifetime.start.p0(i64 8, ptr %12) #5
  call void @llvm.lifetime.start.p0(i64 4, ptr %13) #5
  call void @llvm.lifetime.start.p0(i64 4, ptr %14) #5
  %15 = load i32, ptr %10, align 4
  %16 = icmp sge i32 %15, 15
  br i1 %16, label %17, label %52

17:                                               ; preds = %5
  %18 = load ptr, ptr %8, align 8
  %19 = load i32, ptr @hf_vuze_dht_network_coordinates_count, align 4
  %20 = load ptr, ptr %6, align 8
  %21 = load i32, ptr %9, align 4
  %22 = call ptr @proto_tree_add_item(ptr noundef %18, i32 noundef %19, ptr noundef %20, i32 noundef %21, i32 noundef 1, i32 noundef 0)
  %23 = load ptr, ptr %6, align 8
  %24 = load i32, ptr %9, align 4
  %25 = call zeroext i8 @tvb_get_uint8(ptr noundef %23, i32 noundef %24)
  %26 = zext i8 %25 to i32
  store i32 %26, ptr %14, align 4
  %27 = load i32, ptr %9, align 4
  %28 = add i32 %27, 1
  store i32 %28, ptr %9, align 4
  %29 = load ptr, ptr %8, align 8
  %30 = load i32, ptr @hf_vuze_dht_network_coordinates, align 4
  %31 = load ptr, ptr %6, align 8
  %32 = load i32, ptr %9, align 4
  %33 = load i32, ptr %14, align 4
  %34 = call ptr (ptr, i32, ptr, i32, i32, ptr, ...) @proto_tree_add_none_format(ptr noundef %29, i32 noundef %30, ptr noundef %31, i32 noundef %32, i32 noundef 0, ptr noundef @.str.182, i32 noundef %33)
  store ptr %34, ptr %11, align 8
  %35 = load ptr, ptr %11, align 8
  %36 = load i32, ptr @ett_vuze_dht_network_coordinates, align 4
  %37 = call ptr @proto_item_add_subtree(ptr noundef %35, i32 noundef %36)
  store ptr %37, ptr %12, align 8
  store i32 0, ptr %13, align 4
  br label %38

38:                                               ; preds = %48, %17
  %39 = load i32, ptr %13, align 4
  %40 = load i32, ptr %14, align 4
  %41 = icmp ult i32 %39, %40
  br i1 %41, label %42, label %51

42:                                               ; preds = %38
  %43 = load ptr, ptr %6, align 8
  %44 = load ptr, ptr %7, align 8
  %45 = load ptr, ptr %12, align 8
  %46 = load i32, ptr %9, align 4
  %47 = call i32 @dissect_vuze_dht_network_coordinate(ptr noundef %43, ptr noundef %44, ptr noundef %45, i32 noundef %46)
  store i32 %47, ptr %9, align 4
  br label %48

48:                                               ; preds = %42
  %49 = load i32, ptr %13, align 4
  %50 = add i32 %49, 1
  store i32 %50, ptr %13, align 4
  br label %38, !llvm.loop !6

51:                                               ; preds = %38
  br label %52

52:                                               ; preds = %51, %5
  %53 = load i32, ptr %9, align 4
  call void @llvm.lifetime.end.p0(i64 4, ptr %14) #5
  call void @llvm.lifetime.end.p0(i64 4, ptr %13) #5
  call void @llvm.lifetime.end.p0(i64 8, ptr %12) #5
  call void @llvm.lifetime.end.p0(i64 8, ptr %11) #5
  ret i32 %53
}