; Function Attrs: null_pointer_is_valid sspstrong uwtable
define internal fastcc i32 @dissect_vuze_dht_network_coordinates(ptr noundef %0, ptr noundef readonly captures(none) %1, ptr noundef %2, i32 noundef %3, i32 noundef range(i32 10, -2147483648) %4) unnamed_addr #0 {
  %6 = icmp samesign ugt i32 %4, 14
  br i1 %6, label %7, label %.loopexit

7:                                                ; preds = %5
  %8 = load i32, ptr @hf_vuze_dht_network_coordinates_count, align 4
  %9 = tail call ptr @proto_tree_add_item(ptr noundef %2, i32 noundef %8, ptr noundef %0, i32 noundef %3, i32 noundef 1, i32 noundef 0)
  %10 = tail call zeroext i8 @tvb_get_uint8(ptr noundef %0, i32 noundef %3)
  %11 = zext i8 %10 to i32
  %12 = add i32 %3, 1
  %13 = load i32, ptr @hf_vuze_dht_network_coordinates, align 4
  %14 = tail call ptr (ptr, i32, ptr, i32, i32, ptr, ...) @proto_tree_add_none_format(ptr noundef %2, i32 noundef %13, ptr noundef %0, i32 noundef %12, i32 noundef 0, ptr noundef nonnull @.str.182, i32 noundef %11)
  %15 = load i32, ptr @ett_vuze_dht_network_coordinates, align 4
  %16 = tail call ptr @proto_item_add_subtree(ptr noundef %14, i32 noundef %15)
  %.not = icmp eq i8 %10, 0
  br i1 %.not, label %.loopexit, label %.lr.ph

.lr.ph:                                           ; preds = %7
  %17 = getelementptr inbounds nuw i8, ptr %1, i64 408
  br label %18

18:                                               ; preds = %.lr.ph, %dissect_vuze_dht_network_coordinate.exit
  %.121 = phi i32 [ %12, %.lr.ph ], [ %.0.i, %dissect_vuze_dht_network_coordinate.exit ]
  %.01920 = phi i32 [ 0, %.lr.ph ], [ %72, %dissect_vuze_dht_network_coordinate.exit ]
  %19 = tail call zeroext i8 @tvb_get_uint8(ptr noundef %0, i32 noundef %.121)
  %20 = add i32 %.121, 1
  %21 = tail call zeroext i8 @tvb_get_uint8(ptr noundef %0, i32 noundef %20)
  %22 = zext i8 %21 to i32
  %23 = load i32, ptr @hf_vuze_dht_network_coordinate, align 4
  %24 = add nuw nsw i32 %22, 2
  %25 = tail call ptr @proto_tree_add_item(ptr noundef %16, i32 noundef %23, ptr noundef %0, i32 noundef %.121, i32 noundef %24, i32 noundef 0)
  %26 = load i32, ptr @ett_vuze_dht_network_coordinate, align 4
  %27 = tail call ptr @proto_item_add_subtree(ptr noundef %25, i32 noundef %26)
  %28 = tail call zeroext i8 @tvb_get_uint8(ptr noundef %0, i32 noundef %.121)
  %29 = zext i8 %28 to i32
  %30 = tail call zeroext i8 @tvb_get_uint8(ptr noundef %0, i32 noundef %20)
  %31 = zext i8 %30 to i32
  tail call void (ptr, ptr, ...) @proto_item_append_text(ptr noundef %25, ptr noundef nonnull @.str.183, i32 noundef %29, i32 noundef %31)
  %32 = icmp eq i8 %19, 1
  br i1 %32, label %33, label %46

33:                                               ; preds = %18
  %34 = add i32 %.121, 2
  %35 = tail call float @tvb_get_ntohieee_float(ptr noundef %0, i32 noundef %34)
  %36 = fpext float %35 to double
  %37 = add i32 %.121, 6
  %38 = tail call float @tvb_get_ntohieee_float(ptr noundef %0, i32 noundef %37)
  %39 = fpext float %38 to double
  %40 = add i32 %.121, 10
  %41 = tail call float @tvb_get_ntohieee_float(ptr noundef %0, i32 noundef %40)
  %42 = fpext float %41 to double
  %43 = add i32 %.121, 14
  %44 = tail call float @tvb_get_ntohieee_float(ptr noundef %0, i32 noundef %43)
  %45 = fpext float %44 to double
  tail call void (ptr, ptr, ...) @proto_item_append_text(ptr noundef %25, ptr noundef nonnull @.str.184, double noundef %36, double noundef %39, double noundef %42, double noundef %45)
  br label %50

46:                                               ; preds = %18
  %47 = load ptr, ptr %17, align 8
  %48 = add i32 %.121, 2
  %49 = tail call ptr @tvb_bytes_to_str(ptr noundef %47, ptr noundef %0, i32 noundef %48, i32 noundef %22)
  tail call void (ptr, ptr, ...) @proto_item_append_text(ptr noundef %25, ptr noundef nonnull @.str.185, ptr noundef %49)
  br label %50

50:                                               ; preds = %46, %33
  %.pre-phi.i = phi i32 [ %48, %46 ], [ %34, %33 ]
  %51 = load i32, ptr @hf_vuze_dht_network_coordinate_type, align 4
  %52 = tail call ptr @proto_tree_add_item(ptr noundef %27, i32 noundef %51, ptr noundef %0, i32 noundef %.121, i32 noundef 1, i32 noundef 0)
  %53 = load i32, ptr @hf_vuze_dht_network_coordinate_size, align 4
  %54 = tail call ptr @proto_tree_add_item(ptr noundef %27, i32 noundef %53, ptr noundef %0, i32 noundef %20, i32 noundef 1, i32 noundef 0)
  br i1 %32, label %55, label %68

55:                                               ; preds = %50
  %56 = load i32, ptr @hf_vuze_dht_network_coordinate_x, align 4
  %57 = tail call ptr @proto_tree_add_item(ptr noundef %27, i32 noundef %56, ptr noundef %0, i32 noundef %.pre-phi.i, i32 noundef 4, i32 noundef 0)
  %58 = add i32 %.121, 6
  %59 = load i32, ptr @hf_vuze_dht_network_coordinate_y, align 4
  %60 = tail call ptr @proto_tree_add_item(ptr noundef %27, i32 noundef %59, ptr noundef %0, i32 noundef %58, i32 noundef 4, i32 noundef 0)
  %61 = add i32 %.121, 10
  %62 = load i32, ptr @hf_vuze_dht_network_coordinate_height, align 4
  %63 = tail call ptr @proto_tree_add_item(ptr noundef %27, i32 noundef %62, ptr noundef %0, i32 noundef %61, i32 noundef 4, i32 noundef 0)
  %64 = add i32 %.121, 14
  %65 = load i32, ptr @hf_vuze_dht_network_coordinate_error, align 4
  %66 = tail call ptr @proto_tree_add_item(ptr noundef %27, i32 noundef %65, ptr noundef %0, i32 noundef %64, i32 noundef 4, i32 noundef 0)
  %67 = add i32 %.121, 18
  br label %dissect_vuze_dht_network_coordinate.exit

68:                                               ; preds = %50
  %69 = load i32, ptr @hf_vuze_dht_network_coordinate_data, align 4
  %70 = tail call ptr @proto_tree_add_item(ptr noundef %27, i32 noundef %69, ptr noundef %0, i32 noundef %.pre-phi.i, i32 noundef %22, i32 noundef 0)
  %71 = add i32 %.pre-phi.i, %22
  br label %dissect_vuze_dht_network_coordinate.exit

dissect_vuze_dht_network_coordinate.exit:         ; preds = %55, %68
  %.0.i = phi i32 [ %67, %55 ], [ %71, %68 ]
  %72 = add nuw nsw i32 %.01920, 1
  %exitcond.not = icmp eq i32 %72, %11
  br i1 %exitcond.not, label %.loopexit, label %18, !llvm.loop !10

.loopexit:                                        ; preds = %dissect_vuze_dht_network_coordinate.exit, %7, %5
  %.0 = phi i32 [ %3, %5 ], [ %12, %7 ], [ %.0.i, %dissect_vuze_dht_network_coordinate.exit ]
  ret i32 %.0
}